Microchip MPLAB XC8 Compiler V2.32

Linker command line:

-W-3 --edf=C:\Program Files\Microchip\xc8\v2.32\pic\dat\en_msgs.txt -cn \
  -h+dist/default/production\DiceRoller.X.production.sym \
  --cmf=dist/default/production\DiceRoller.X.production.cmf -z -Q16F687 \
  -oC:\Users\User\AppData\Local\Temp\xcAs8cg.4 --defsym=__MPLAB_BUILD=1 \
  -Mdist/default/production/DiceRoller.X.production.map -E1 \
  -ver=XC8 Compiler --acfsm=1493 -ASTACK=0A0h-0BFh -pstack=STACK \
  -ACODE=00h-07FFh -ASTRCODE=00h-07FFh -ASTRING=00h-0FFhx8 \
  -ACONST=00h-0FFhx8 -AENTRY=00h-0FFhx8 -ACOMMON=070h-07Fh \
  -ABANK0=020h-06Fh -ABANK1=0A0h-0BFh -ARAM=020h-06Fh,0A0h-0BFh \
  -AABS1=020h-07Fh,0A0h-0BFh -ASFR0=00h-01Fh -ASFR1=080h-09Fh \
  -ASFR2=0100h-016Fh -ASFR3=0180h-01EFh -ACONFIG=02007h-02007h -DCONFIG=2 \
  -AIDLOC=02000h-02003h -DIDLOC=2 -AEEDATA=00h-0FFh/02100h \
  -peeprom_data=EEDATA -DEEDATA=2 -DCODE=2 -DSTRCODE=2 -DSTRING=2 -DCONST=2 \
  -DENTRY=2 -preset_vec=00h,intentry=04h,init,end_init -ppowerup=CODE \
  -pcinit=CODE -pfunctab=ENTRY -k \
  C:\Users\User\AppData\Local\Temp\xcAs8cg.o \
  dist/default/production\DiceRoller.X.production.o 

Object code version is 3.11

Machine type is 16F687



                Name                               Link     Load   Length Selector   Space Scale
C:\Users\User\AppData\Local\Temp\xcAs8cg.o
                end_init                              A        A        1        8       0
                reset_vec                             0        0        1        0       0
                config                             2007     2007        1        0       4
dist/default/production\DiceRoller.X.production.o
                cinit                                 B        B       17        8       0
                intentry                              4        4        6        8       0
                config                             2007     2007        1        0       4
                text10                              20B      20B       9D        8       0
                text9                               3CD      3CD       56        8       0
                text8                               423      423       52        8       0
                text7                               475      475       2A        8       0
                text6                               4B6      4B6       16        8       0
                text5                               49F      49F       17        8       0
                text4                               316      316       5D        8       0
                text3                               373      373       5A        8       0
                text2                               2A8      2A8       6E        8       0
                text1                                22       22       F6        8       0
                maintext                            118      118       F3        8       0
                cstackBANK0                          41       41        C       20       1
                cstackCOMMON                         70       70        6       70       1
                clrtext                             4CC      4CC        8        8       0
                dataBANK0                            4D       4D        5       20       1
                bssBANK0                             20       20       21       20       1
                dataCOMMON                           7A       7A        1       70       1
                bssCOMMON                            76       76        4       70       1
                idataBANK0                          4D4      4D4        5        8       0
                idataCOMMON                         4D9      4D9        1        8       0

TOTAL           Name                               Link     Load   Length     Space
        CLASS   STACK          

        CLASS   CODE           
                end_init                              A        A        1         0
                cinit                                 B        B       17         0
                intentry                              4        4        6         0
                reset_vec                             0        0        1         0
                text10                              20B      20B       9D         0
                text9                               3CD      3CD       56         0
                text8                               423      423       52         0
                text7                               475      475       2A         0
                text6                               4B6      4B6       16         0
                text5                               49F      49F       17         0
                text4                               316      316       5D         0
                text3                               373      373       5A         0
                text2                               2A8      2A8       6E         0
                text1                                22       22       F6         0
                maintext                            118      118       F3         0
                clrtext                             4CC      4CC        8         0
                idataBANK0                          4D4      4D4        5         0
                idataCOMMON                         4D9      4D9        1         0

        CLASS   STRCODE        

        CLASS   STRING         

        CLASS   CONST          

        CLASS   ENTRY          

        CLASS   COMMON         
                cstackCOMMON                         70       70        6         1
                dataCOMMON                           7A       7A        1         1
                bssCOMMON                            76       76        4         1

        CLASS   BANK0          
                cstackBANK0                          41       41        C         1
                dataBANK0                            4D       4D        5         1
                bssBANK0                             20       20       21         1

        CLASS   BANK1          

        CLASS   RAM            

        CLASS   ABS1           
                abs_s1                               7E       7E        2         1

        CLASS   SFR0           

        CLASS   SFR1           

        CLASS   SFR2           

        CLASS   SFR3           

        CLASS   CONFIG         
                config                             2007     2007        1         4

        CLASS   IDLOC          

        CLASS   EEDATA         

        CLASS   BANK3          

        CLASS   BANK2          



SEGMENTS        Name                           Load    Length   Top    Selector   Space  Class     Delta

                reset_vec                      000000  000001  000001         0       0  CODE        2
                intentry                       000004  0004D6  0004DA         8       0  CODE        2
                bssBANK0                       000020  000032  000052        20       1  BANK0       1
                cstackCOMMON                   000070  00000B  00007B        70       1  COMMON      1


UNUSED ADDRESS RANGES

        Name                Unused          Largest block    Delta
        BANK0            0052-006F             1E           1
        BANK1            00A0-00BF             20           1
        CODE             0001-0003              3           2
                         04DA-07FF            326
        COMMON           007B-007D              3           1
        CONST            0001-0003              3           2
                         04DA-07FF            100
        EEDATA           2100-21FF            100           2
        ENTRY            0001-0003              3           2
                         04DA-07FF            100
        IDLOC            2000-2003              4           2
        RAM              0052-006F             1E           1
                         00A0-00BF             20
        SFR0             0000-001F             20           1
        SFR1             0080-009F             20           1
        SFR2             0100-016F             70           1
        SFR3             0180-01EF             70           1
        STACK            00A0-00BF             20           1
        STRCODE          0001-0003              3           2
                         04DA-07FF            326
        STRING           0001-0003              3           2
                         04DA-07FF            100

                                  Symbol Table

?___llmod                      cstackBANK0  0041
_ANSEL                         (abs)        011E
_ANSELH                        (abs)        011F
_Botoes                        bssBANK0     0020
_Display7seg4digitsVetor       bssBANK0     002F
_GIE                           (abs)        005F
_IOCA                          (abs)        0096
_IOCB                          (abs)        0116
_OSCCON                        (abs)        008F
_PEIE                          (abs)        005E
_PORTA                         (abs)        0005
_PORTB                         (abs)        0006
_PORTC                         (abs)        0007
_PS0                           (abs)        0408
_PS1                           (abs)        0409
_PS2                           (abs)        040A
_PSA                           (abs)        040B
_RABIE                         (abs)        005B
_RABIF                         (abs)        0058
_T0CS                          (abs)        040D
_T0IE                          (abs)        005D
_T0IF                          (abs)        005A
_TMR0                          (abs)        0001
_TRISA                         (abs)        0085
_TRISB                         (abs)        0086
_TRISC                         (abs)        0087
_WPUA4                         (abs)        04AC
_WPUB4                         (abs)        08AC
_WPUB5                         (abs)        08AD
_WPUB6                         (abs)        08AE
_WPUB7                         (abs)        08AF
__Habs1                        abs1         0000
__Hbank0                       bank0        0000
__Hbank1                       bank1        0000
__Hbank2                       bank2        0000
__Hbank3                       bank3        0000
__HbssBANK0                    bssBANK0     0000
__HbssCOMMON                   bssCOMMON    0000
__Hcinit                       cinit        0022
__Hclrtext                     clrtext      0000
__Hcode                        code         0000
__Hcommon                      common       0000
__Hconfig                      config       2008
__HcstackBANK0                 cstackBANK0  0000
__HcstackCOMMON                cstackCOMMON 0000
__HdataBANK0                   dataBANK0    0000
__HdataCOMMON                  dataCOMMON   0000
__Heeprom_data                 eeprom_data  0000
__Hend_init                    end_init     000B
__Hfunctab                     functab      0000
__HidataBANK0                  idataBANK0   0000
__HidataCOMMON                 idataCOMMON  0000
__Hinit                        init         000A
__Hintentry                    intentry     000A
__Hmaintext                    maintext     0000
__Hpowerup                     powerup      0000
__Hram                         ram          0000
__Hreset_vec                   reset_vec    0001
__Hsfr0                        sfr0         0000
__Hsfr1                        sfr1         0000
__Hsfr2                        sfr2         0000
__Hsfr3                        sfr3         0000
__Hspace_0                     (abs)        04DA
__Hspace_1                     (abs)        007B
__Hspace_2                     (abs)        0000
__Hspace_3                     (abs)        0000
__Hspace_4                     (abs)        400F
__Hstack                       stack        0000
__Hstrings                     strings      0000
__Htext                        text         0000
__Labs1                        abs1         0000
__Lbank0                       bank0        0000
__Lbank1                       bank1        0000
__Lbank2                       bank2        0000
__Lbank3                       bank3        0000
__LbssBANK0                    bssBANK0     0000
__LbssCOMMON                   bssCOMMON    0000
__Lcinit                       cinit        000B
__Lclrtext                     clrtext      0000
__Lcode                        code         0000
__Lcommon                      common       0000
__Lconfig                      config       0000
__LcstackBANK0                 cstackBANK0  0000
__LcstackCOMMON                cstackCOMMON 0000
__LdataBANK0                   dataBANK0    0000
__LdataCOMMON                  dataCOMMON   0000
__Leeprom_data                 eeprom_data  0000
__Lend_init                    end_init     000A
__Lfunctab                     functab      0000
__LidataBANK0                  idataBANK0   0000
__LidataCOMMON                 idataCOMMON  0000
__Linit                        init         000A
__Lintentry                    intentry     0004
__Lmaintext                    maintext     0000
__Lpowerup                     powerup      0000
__Lram                         ram          0000
__Lreset_vec                   reset_vec    0000
__Lsfr0                        sfr0         0000
__Lsfr1                        sfr1         0000
__Lsfr2                        sfr2         0000
__Lsfr3                        sfr3         0000
__Lspace_0                     (abs)        0000
__Lspace_1                     (abs)        0000
__Lspace_2                     (abs)        0000
__Lspace_3                     (abs)        0000
__Lspace_4                     (abs)        0000
__Lstack                       stack        0000
__Lstrings                     strings      0000
__Ltext                        text         0000
__S0                           (abs)        04DA
__S1                           (abs)        007B
__S2                           (abs)        0000
__S3                           (abs)        0000
___bmul                        text5        049F
___bmul@multiplicand           cstackBANK0  0041
___bmul@multiplier             cstackBANK0  0044
___bmul@product                cstackBANK0  0043
___int_sp                      stack        0000
___latbits                     (abs)        0000
___llmod                       text9        03CD
___llmod@counter               cstackBANK0  004A
___llmod@dividend              cstackBANK0  0045
___llmod@divisor               cstackBANK0  0041
___sp                          stack        0000
___stackhi                     (abs)        0000
___stacklo                     (abs)        0000
__end_of___bmul                text5        04B6
__end_of___llmod               text9        0423
__end_of__initialization       cinit        0020
__end_of_clearPin              text4        0373
__end_of_configBoard           text8        0475
__end_of_initButtons           text7        049F
__end_of_initDisplay           text6        04CC
__end_of_main                  maintext     020B
__end_of_my_isr_routine        text10       02A8
__end_of_setPin                text3        03CD
__end_of_shiftDisplays         text2        0316
__end_of_writeCharOnDisplay    text1        0118
__initialization               cinit        000B
__pbssBANK0                    bssBANK0     0020
__pbssCOMMON                   bssCOMMON    0076
__pcstackBANK0                 cstackBANK0  0041
__pcstackCOMMON                cstackCOMMON 0070
__pdataBANK0                   dataBANK0    004D
__pdataCOMMON                  dataCOMMON   007A
__pidataBANK0                  idataBANK0   04D4
__pidataCOMMON                 idataCOMMON  04D9
__pintentry                    intentry     0004
__pmaintext                    maintext     0118
__ptext1                       text1        0022
__ptext10                      text10       020B
__ptext2                       text2        02A8
__ptext3                       text3        0373
__ptext4                       text4        0316
__ptext5                       text5        049F
__ptext6                       text6        04B6
__ptext7                       text7        0475
__ptext8                       text8        0423
__ptext9                       text9        03CD
__size_of___bmul               (abs)        0000
__size_of___llmod              (abs)        0000
__size_of_clearPin             (abs)        0000
__size_of_configBoard          (abs)        0000
__size_of_initButtons          (abs)        0000
__size_of_initDisplay          (abs)        0000
__size_of_main                 (abs)        0000
__size_of_my_isr_routine       (abs)        0000
__size_of_setPin               (abs)        0000
__size_of_shiftDisplays        (abs)        0000
__size_of_writeCharOnDisplay   (abs)        0000
_clearPin                      text4        0316
_configBoard                   text8        0423
_indiceDisplay                 bssBANK0     003F
_initButtons                   text7        0475
_initDisplay                   text6        04B6
_main                          maintext     0118
_my_isr_routine                text10       020B
_nRABPU                        (abs)        040F
_readButtonStatus              dataBANK0    004D
_setPin                        text3        0373
_shiftDisplays                 text2        02A8
_uiButtonDebounce              bssCOMMON    0076
_uiCounterms                   bssBANK0     003B
_writeCharOnDisplay            text1        0022
btemp                          (abs)        007E
clearPin@ucPin                 cstackBANK0  0048
clearPin@ucPort                cstackBANK0  0045
clear_ram0                     clrtext      04CC
end_of_initialization          cinit        0020
interrupt_function             intentry     0004
intlevel0                      functab      0000
intlevel1                      functab      0000
intlevel2                      functab      0000
intlevel3                      functab      0000
intlevel4                      functab      0000
intlevel5                      functab      0000
reset_vec                      reset_vec    0000
saved_w                        (abs)        007E
setPin@ucPin                   cstackBANK0  0048
setPin@ucPort                  cstackBANK0  0045
start                          init         000A
start_initialization           cinit        000B
writeCharOnDisplay@ucCharacter cstackBANK0  0048
writeCharOnDisplay@ucDisplay   cstackBANK0  0045
wtemp0                         (abs)        007E


MODULE INFORMATION

Module		Function		Class		Link	Load	Size
C:\Program Files\Microchip\xc8\v2.32\pic\sources\c90\common\Umul8.c
		___bmul        		CODE           	049F	0000	23

C:\Program Files\Microchip\xc8\v2.32\pic\sources\c90\common\Umul8.c estimated size: 23

C:\Program Files\Microchip\xc8\v2.32\pic\sources\c90\common\llmod.c
		___llmod       		CODE           	03CD	0000	86

C:\Program Files\Microchip\xc8\v2.32\pic\sources\c90\common\llmod.c estimated size: 86

shared
		__initialization		CODE           	000B	0000	21

shared estimated size: 21

utils.c
		_initDisplay   		CODE           	04B6	0000	22
		_writeCharOnDisplay		CODE           	0022	0000	246
		_setPin        		CODE           	0373	0000	90
		_initButtons   		CODE           	0475	0000	42
		_clearPin      		CODE           	0316	0000	93
		_shiftDisplays 		CODE           	02A8	0000	110
		_configBoard   		CODE           	0423	0000	82

utils.c estimated size: 685

main.c
		_main          		CODE           	0118	0000	243
		_my_isr_routine		CODE           	020B	0000	157

main.c estimated size: 400

